; ModuleID = '33/964.c'
source_filename = "33/964.c"
target datalayout = "e-m:e-p270:32:32-p271:32:32-p272:64:64-i64:64-f80:128-n8:16:32:64-S128"
target triple = "x86_64-pc-linux-gnu"

@.str = private unnamed_addr constant [3 x i8] c"%d\00", align 1
@.str.1 = private unnamed_addr constant [3 x i8] c"%s\00", align 1
@.str.2 = private unnamed_addr constant [4 x i8] c"%s\0A\00", align 1

; Function Attrs: noinline nounwind uwtable
define dso_local i32 @main() #0 {
  %1 = alloca i32, align 4
  %2 = alloca i32, align 4
  %3 = alloca i32, align 4
  %4 = alloca i32, align 4
  %5 = alloca i32, align 4
  %6 = alloca [999 x [256 x i8]], align 16
  %7 = alloca [999 x [256 x i8]], align 16
  store i32 0, i32* %1, align 4
  %8 = call i32 (i8*, ...) @__isoc99_scanf(i8* getelementptr inbounds ([3 x i8], [3 x i8]* @.str, i64 0, i64 0), i32* %2)
  store i32 0, i32* %3, align 4
  br label %9

9:                                                ; preds = %19, %0
  %10 = load i32, i32* %3, align 4
  %11 = load i32, i32* %2, align 4
  %12 = icmp slt i32 %10, %11
  br i1 %12, label %13, label %22

13:                                               ; preds = %9
  %14 = load i32, i32* %3, align 4
  %15 = sext i32 %14 to i64
  %16 = getelementptr inbounds [999 x [256 x i8]], [999 x [256 x i8]]* %6, i64 0, i64 %15
  %17 = getelementptr inbounds [256 x i8], [256 x i8]* %16, i64 0, i64 0
  %18 = call i32 (i8*, ...) @__isoc99_scanf(i8* getelementptr inbounds ([3 x i8], [3 x i8]* @.str.1, i64 0, i64 0), i8* %17)
  br label %19

19:                                               ; preds = %13
  %20 = load i32, i32* %3, align 4
  %21 = add nsw i32 %20, 1
  store i32 %21, i32* %3, align 4
  br label %9

22:                                               ; preds = %9
  store i32 0, i32* %3, align 4
  br label %23

23:                                               ; preds = %86, %22
  %24 = load i32, i32* %3, align 4
  %25 = load i32, i32* %2, align 4
  %26 = icmp slt i32 %24, %25
  br i1 %26, label %27, label %89

27:                                               ; preds = %23
  %28 = load i32, i32* %3, align 4
  %29 = sext i32 %28 to i64
  %30 = getelementptr inbounds [999 x [256 x i8]], [999 x [256 x i8]]* %6, i64 0, i64 %29
  %31 = getelementptr inbounds [256 x i8], [256 x i8]* %30, i64 0, i64 0
  %32 = call i64 @strlen(i8* %31) #3
  %33 = trunc i64 %32 to i32
  store i32 %33, i32* %5, align 4
  store i32 0, i32* %4, align 4
  br label %34

34:                                               ; preds = %76, %27
  %35 = load i32, i32* %4, align 4
  %36 = load i32, i32* %5, align 4
  %37 = icmp slt i32 %35, %36
  br i1 %37, label %38, label %79

38:                                               ; preds = %34
  %39 = load i32, i32* %3, align 4
  %40 = sext i32 %39 to i64
  %41 = getelementptr inbounds [999 x [256 x i8]], [999 x [256 x i8]]* %6, i64 0, i64 %40
  %42 = load i32, i32* %4, align 4
  %43 = sext i32 %42 to i64
  %44 = getelementptr inbounds [256 x i8], [256 x i8]* %41, i64 0, i64 %43
  %45 = load i8, i8* %44, align 1
  %46 = sext i8 %45 to i32
  switch i32 %46, label %75 [
    i32 65, label %47
    i32 84, label %54
    i32 71, label %61
    i32 67, label %68
  ]

47:                                               ; preds = %38
  %48 = load i32, i32* %3, align 4
  %49 = sext i32 %48 to i64
  %50 = getelementptr inbounds [999 x [256 x i8]], [999 x [256 x i8]]* %7, i64 0, i64 %49
  %51 = load i32, i32* %4, align 4
  %52 = sext i32 %51 to i64
  %53 = getelementptr inbounds [256 x i8], [256 x i8]* %50, i64 0, i64 %52
  store i8 84, i8* %53, align 1
  br label %75

54:                                               ; preds = %38
  %55 = load i32, i32* %3, align 4
  %56 = sext i32 %55 to i64
  %57 = getelementptr inbounds [999 x [256 x i8]], [999 x [256 x i8]]* %7, i64 0, i64 %56
  %58 = load i32, i32* %4, align 4
  %59 = sext i32 %58 to i64
  %60 = getelementptr inbounds [256 x i8], [256 x i8]* %57, i64 0, i64 %59
  store i8 65, i8* %60, align 1
  br label %75

61:                                               ; preds = %38
  %62 = load i32, i32* %3, align 4
  %63 = sext i32 %62 to i64
  %64 = getelementptr inbounds [999 x [256 x i8]], [999 x [256 x i8]]* %7, i64 0, i64 %63
  %65 = load i32, i32* %4, align 4
  %66 = sext i32 %65 to i64
  %67 = getelementptr inbounds [256 x i8], [256 x i8]* %64, i64 0, i64 %66
  store i8 67, i8* %67, align 1
  br label %75

68:                                               ; preds = %38
  %69 = load i32, i32* %3, align 4
  %70 = sext i32 %69 to i64
  %71 = getelementptr inbounds [999 x [256 x i8]], [999 x [256 x i8]]* %7, i64 0, i64 %70
  %72 = load i32, i32* %4, align 4
  %73 = sext i32 %72 to i64
  %74 = getelementptr inbounds [256 x i8], [256 x i8]* %71, i64 0, i64 %73
  store i8 71, i8* %74, align 1
  br label %75

75:                                               ; preds = %68, %38, %61, %54, %47
  br label %76

76:                                               ; preds = %75
  %77 = load i32, i32* %4, align 4
  %78 = add nsw i32 %77, 1
  store i32 %78, i32* %4, align 4
  br label %34

79:                                               ; preds = %34
  %80 = load i32, i32* %3, align 4
  %81 = sext i32 %80 to i64
  %82 = getelementptr inbounds [999 x [256 x i8]], [999 x [256 x i8]]* %7, i64 0, i64 %81
  %83 = load i32, i32* %5, align 4
  %84 = sext i32 %83 to i64
  %85 = getelementptr inbounds [256 x i8], [256 x i8]* %82, i64 0, i64 %84
  store i8 0, i8* %85, align 1
  br label %86

86:                                               ; preds = %79
  %87 = load i32, i32* %3, align 4
  %88 = add nsw i32 %87, 1
  store i32 %88, i32* %3, align 4
  br label %23

89:                                               ; preds = %23
  store i32 0, i32* %3, align 4
  br label %90

90:                                               ; preds = %100, %89
  %91 = load i32, i32* %3, align 4
  %92 = load i32, i32* %2, align 4
  %93 = icmp slt i32 %91, %92
  br i1 %93, label %94, label %103

94:                                               ; preds = %90
  %95 = load i32, i32* %3, align 4
  %96 = sext i32 %95 to i64
  %97 = getelementptr inbounds [999 x [256 x i8]], [999 x [256 x i8]]* %7, i64 0, i64 %96
  %98 = getelementptr inbounds [256 x i8], [256 x i8]* %97, i64 0, i64 0
  %99 = call i32 (i8*, ...) @printf(i8* getelementptr inbounds ([4 x i8], [4 x i8]* @.str.2, i64 0, i64 0), i8* %98)
  br label %100

100:                                              ; preds = %94
  %101 = load i32, i32* %3, align 4
  %102 = add nsw i32 %101, 1
  store i32 %102, i32* %3, align 4
  br label %90

103:                                              ; preds = %90
  ret i32 0
}

declare dso_local i32 @__isoc99_scanf(i8*, ...) #1

; Function Attrs: nounwind readonly
declare dso_local i64 @strlen(i8*) #2

declare dso_local i32 @printf(i8*, ...) #1


!llvm.module.flags = !{!0}
!llvm.ident = !{!1}

!0 = !{i32 1, !"wchar_size", i32 4}
!1 = !{!"clang version 10.0.0-4ubuntu1 "}
